; Function Attrs: mustprogress uwtable
define void @_ZN5folly11RequestData19releaseRefClearOnlyEv(ptr noundef nonnull align 8 dereferenceable(12) %0) local_unnamed_addr #7 align 2 personality ptr @__gxx_personality_v0 {
  %2 = getelementptr inbounds nuw i8, ptr %0, i64 8
  %3 = atomicrmw sub ptr %2, i32 4096 acq_rel, align 4
  %4 = icmp slt i32 %3, 8192
  br i1 %4, label %5, label %9

5:                                                ; preds = %1
  %6 = load ptr, ptr %0, align 8, !tbaa !135
  %7 = getelementptr inbounds nuw i8, ptr %6, i64 40
  %8 = load ptr, ptr %7, align 8
  tail call void %8(ptr noundef nonnull align 8 dereferenceable(12) %0)
  br label %9

9:                                                ; preds = %5, %1
  ret void
}